target datalayout = "e-m:e-p270:32:32-p271:32:32-p272:64:64-i64:64-i128:128-f80:128-n8:16:32:64-S128"
target triple = "x86_64-pc-linux-gnu"

@H5_libinit_g = external global i8, align 1
@H5_libterm_g = external global i8, align 1
@.str = private unnamed_addr constant [97 x i8] c"generated/home/dtcxzyw/WorkSpace/Projects/compilers/llvm-opt-benchmark/bench/hdf5/hdf5/src/H5P.c\00", align 1
@H5E_FUNC_g = external global i64, align 8
@H5E_CANTINIT_g = external global i64, align 8
@.str.1 = private unnamed_addr constant [30 x i8] c"library initialization failed\00", align 1
@H5E_CANTSET_g = external global i64, align 8
@.str.2 = private unnamed_addr constant [22 x i8] c"can't set API context\00", align 1
@H5E_ARGS_g = external global i64, align 8
@H5E_BADTYPE_g = external global i64, align 8
@H5E_PLIST_g = external global i64, align 8
@H5E_CANTREGISTER_g = external global i64, align 8
@H5E_BADVALUE_g = external global i64, align 8
@.str.18 = private unnamed_addr constant [20 x i8] c"not a property list\00", align 1
@.str.19 = private unnamed_addr constant [22 x i8] c"invalid property name\00", align 1
@__func__.H5Pset = private unnamed_addr constant [7 x i8] c"H5Pset\00", align 1
@.str.21 = private unnamed_addr constant [23 x i8] c"invalid property value\00", align 1
@.str.22 = private unnamed_addr constant [29 x i8] c"unable to set value in plist\00", align 1

; Function Attrs: nounwind uwtable
define i32 @H5Pset(i64 noundef %0, ptr noundef %1, ptr noundef %2) #0 {
  %4 = alloca i64, align 8
  %5 = alloca ptr, align 8
  %6 = alloca ptr, align 8
  %7 = alloca ptr, align 8
  %8 = alloca i32, align 4
  %9 = alloca i8, align 1
  %10 = alloca i8, align 1
  store i64 %0, ptr %4, align 8
  store ptr %1, ptr %5, align 8
  store ptr %2, ptr %6, align 8
  store i32 0, ptr %8, align 4
  store i8 0, ptr %9, align 1
  store i8 0, ptr %10, align 1
  %11 = load i8, ptr @H5_libinit_g, align 1
  %12 = trunc i8 %11 to i1
  br i1 %12, label %17, label %13

13:                                               ; preds = %3
  %14 = load i8, ptr @H5_libterm_g, align 1
  %15 = trunc i8 %14 to i1
  %16 = xor i1 %15, true
  br label %17

17:                                               ; preds = %13, %3
  %18 = phi i1 [ false, %3 ], [ %16, %13 ]
  %19 = xor i1 %18, true
  %20 = xor i1 %19, true
  %21 = zext i1 %20 to i32
  %22 = sext i32 %21 to i64
  %23 = icmp ne i64 %22, 0
  br i1 %23, label %24, label %48

24:                                               ; preds = %17
  %25 = call i32 @H5_init_library()
  %26 = icmp slt i32 %25, 0
  %27 = xor i1 %26, true
  %28 = xor i1 %27, true
  %29 = zext i1 %28 to i32
  %30 = sext i32 %29 to i64
  %31 = icmp ne i64 %30, 0
  br i1 %31, label %32, label %47

32:                                               ; preds = %24
  br label %33

33:                                               ; preds = %32
  br label %34

34:                                               ; preds = %33
  br label %35

35:                                               ; preds = %34
  %36 = load i64, ptr @H5E_FUNC_g, align 8
  %37 = load i64, ptr @H5E_CANTINIT_g, align 8
  %38 = call i32 (ptr, ptr, i32, i64, i64, ptr, ...) @H5E_printf_stack(ptr noundef @.str, ptr noundef @__func__.H5Pset, i32 noundef 645, i64 noundef %36, i64 noundef %37, ptr noundef @.str.1)
  br label %39

39:                                               ; preds = %35
  store i8 1, ptr %10, align 1
  %40 = load i8, ptr %10, align 1
  %41 = trunc i8 %40 to i1
  %42 = zext i1 %41 to i8
  store i8 %42, ptr %10, align 1
  br label %43

43:                                               ; preds = %39
  br label %44

44:                                               ; preds = %43
  store i32 -1, ptr %8, align 4
  br label %154

45:                                               ; No predecessors!
  br label %46

46:                                               ; preds = %45
  br label %47

47:                                               ; preds = %46, %24
  br label %48

48:                                               ; preds = %47, %17
  %49 = call i32 @H5CX_push()
  %50 = icmp slt i32 %49, 0
  %51 = xor i1 %50, true
  %52 = xor i1 %51, true
  %53 = zext i1 %52 to i32
  %54 = sext i32 %53 to i64
  %55 = icmp ne i64 %54, 0
  br i1 %55, label %56, label %71

56:                                               ; preds = %48
  br label %57

57:                                               ; preds = %56
  br label %58

58:                                               ; preds = %57
  br label %59

59:                                               ; preds = %58
  %60 = load i64, ptr @H5E_FUNC_g, align 8
  %61 = load i64, ptr @H5E_CANTSET_g, align 8
  %62 = call i32 (ptr, ptr, i32, i64, i64, ptr, ...) @H5E_printf_stack(ptr noundef @.str, ptr noundef @__func__.H5Pset, i32 noundef 645, i64 noundef %60, i64 noundef %61, ptr noundef @.str.2)
  br label %63

63:                                               ; preds = %59
  store i8 1, ptr %10, align 1
  %64 = load i8, ptr %10, align 1
  %65 = trunc i8 %64 to i1
  %66 = zext i1 %65 to i8
  store i8 %66, ptr %10, align 1
  br label %67

67:                                               ; preds = %63
  br label %68

68:                                               ; preds = %67
  store i32 -1, ptr %8, align 4
  br label %154

69:                                               ; No predecessors!
  br label %70

70:                                               ; preds = %69
  br label %72

71:                                               ; preds = %48
  store i8 1, ptr %9, align 1
  br label %72

72:                                               ; preds = %71, %70
  %73 = call i32 @H5E_clear_stack()
  %74 = load i64, ptr %4, align 8
  %75 = call ptr @H5I_object_verify(i64 noundef %74, i32 noundef 11)
  store ptr %75, ptr %7, align 8
  %76 = icmp eq ptr null, %75
  br i1 %76, label %77, label %92

77:                                               ; preds = %72
  br label %78

78:                                               ; preds = %77
  br label %79

79:                                               ; preds = %78
  br label %80

80:                                               ; preds = %79
  %81 = load i64, ptr @H5E_ARGS_g, align 8
  %82 = load i64, ptr @H5E_BADTYPE_g, align 8
  %83 = call i32 (ptr, ptr, i32, i64, i64, ptr, ...) @H5E_printf_stack(ptr noundef @.str, ptr noundef @__func__.H5Pset, i32 noundef 649, i64 noundef %81, i64 noundef %82, ptr noundef @.str.18)
  br label %84

84:                                               ; preds = %80
  store i8 1, ptr %10, align 1
  %85 = load i8, ptr %10, align 1
  %86 = trunc i8 %85 to i1
  %87 = zext i1 %86 to i8
  store i8 %87, ptr %10, align 1
  br label %88

88:                                               ; preds = %84
  br label %89

89:                                               ; preds = %88
  store i32 -1, ptr %8, align 4
  br label %154

90:                                               ; No predecessors!
  br label %91

91:                                               ; preds = %90
  br label %92

92:                                               ; preds = %91, %72
  %93 = load ptr, ptr %5, align 8
  %94 = icmp ne ptr %93, null
  br i1 %94, label %95, label %99

95:                                               ; preds = %92
  %96 = load ptr, ptr %5, align 8
  %97 = load i8, ptr %96, align 1
  %98 = icmp ne i8 %97, 0
  br i1 %98, label %114, label %99

99:                                               ; preds = %95, %92
  br label %100

100:                                              ; preds = %99
  br label %101

101:                                              ; preds = %100
  br label %102

102:                                              ; preds = %101
  %103 = load i64, ptr @H5E_ARGS_g, align 8
  %104 = load i64, ptr @H5E_BADVALUE_g, align 8
  %105 = call i32 (ptr, ptr, i32, i64, i64, ptr, ...) @H5E_printf_stack(ptr noundef @.str, ptr noundef @__func__.H5Pset, i32 noundef 651, i64 noundef %103, i64 noundef %104, ptr noundef @.str.19)
  br label %106

106:                                              ; preds = %102
  store i8 1, ptr %10, align 1
  %107 = load i8, ptr %10, align 1
  %108 = trunc i8 %107 to i1
  %109 = zext i1 %108 to i8
  store i8 %109, ptr %10, align 1
  br label %110

110:                                              ; preds = %106
  br label %111

111:                                              ; preds = %110
  store i32 -1, ptr %8, align 4
  br label %154

112:                                              ; No predecessors!
  br label %113

113:                                              ; preds = %112
  br label %114

114:                                              ; preds = %113, %95
  %115 = load ptr, ptr %6, align 8
  %116 = icmp eq ptr %115, null
  br i1 %116, label %117, label %132

117:                                              ; preds = %114
  br label %118

118:                                              ; preds = %117
  br label %119

119:                                              ; preds = %118
  br label %120

120:                                              ; preds = %119
  %121 = load i64, ptr @H5E_ARGS_g, align 8
  %122 = load i64, ptr @H5E_BADVALUE_g, align 8
  %123 = call i32 (ptr, ptr, i32, i64, i64, ptr, ...) @H5E_printf_stack(ptr noundef @.str, ptr noundef @__func__.H5Pset, i32 noundef 653, i64 noundef %121, i64 noundef %122, ptr noundef @.str.21)
  br label %124

124:                                              ; preds = %120
  store i8 1, ptr %10, align 1
  %125 = load i8, ptr %10, align 1
  %126 = trunc i8 %125 to i1
  %127 = zext i1 %126 to i8
  store i8 %127, ptr %10, align 1
  br label %128

128:                                              ; preds = %124
  br label %129

129:                                              ; preds = %128
  store i32 -1, ptr %8, align 4
  br label %154

130:                                              ; No predecessors!
  br label %131

131:                                              ; preds = %130
  br label %132

132:                                              ; preds = %131, %114
  %133 = load ptr, ptr %7, align 8
  %134 = load ptr, ptr %5, align 8
  %135 = load ptr, ptr %6, align 8
  %136 = call i32 @H5P_set(ptr noundef %133, ptr noundef %134, ptr noundef %135)
  %137 = icmp slt i32 %136, 0
  br i1 %137, label %138, label %153

138:                                              ; preds = %132
  br label %139

139:                                              ; preds = %138
  br label %140

140:                                              ; preds = %139
  br label %141

141:                                              ; preds = %140
  %142 = load i64, ptr @H5E_PLIST_g, align 8
  %143 = load i64, ptr @H5E_CANTREGISTER_g, align 8
  %144 = call i32 (ptr, ptr, i32, i64, i64, ptr, ...) @H5E_printf_stack(ptr noundef @.str, ptr noundef @__func__.H5Pset, i32 noundef 657, i64 noundef %142, i64 noundef %143, ptr noundef @.str.22)
  br label %145

145:                                              ; preds = %141
  store i8 1, ptr %10, align 1
  %146 = load i8, ptr %10, align 1
  %147 = trunc i8 %146 to i1
  %148 = zext i1 %147 to i8
  store i8 %148, ptr %10, align 1
  br label %149

149:                                              ; preds = %145
  br label %150

150:                                              ; preds = %149
  store i32 -1, ptr %8, align 4
  br label %154

151:                                              ; No predecessors!
  br label %152

152:                                              ; preds = %151
  br label %153

153:                                              ; preds = %152, %132
  br label %154

154:                                              ; preds = %153, %150, %129, %111, %89, %68, %44
  %155 = load i8, ptr %9, align 1
  %156 = trunc i8 %155 to i1
  %157 = xor i1 %156, true
  %158 = xor i1 %157, true
  %159 = zext i1 %158 to i32
  %160 = sext i32 %159 to i64
  %161 = icmp ne i64 %160, 0
  br i1 %161, label %162, label %164

162:                                              ; preds = %154
  %163 = call i32 @H5CX_pop(i1 noundef zeroext true)
  store i8 0, ptr %9, align 1
  br label %164

164:                                              ; preds = %162, %154
  %165 = load i8, ptr %10, align 1
  %166 = trunc i8 %165 to i1
  %167 = xor i1 %166, true
  %168 = xor i1 %167, true
  %169 = zext i1 %168 to i32
  %170 = sext i32 %169 to i64
  %171 = icmp ne i64 %170, 0
  br i1 %171, label %172, label %174

172:                                              ; preds = %164
  %173 = call i32 @H5E_dump_api_stack()
  br label %174

174:                                              ; preds = %172, %164
  %175 = load i32, ptr %8, align 4
  ret i32 %175
}