; Function Attrs: nounwind uwtable
define range(i32 -1, 1) i32 @H5Pset(i64 noundef %0, ptr noundef %1, ptr noundef %2) local_unnamed_addr #0 {
  %4 = load i8, ptr @H5_libinit_g, align 1
  %5 = trunc i8 %4 to i1
  %6 = load i8, ptr @H5_libterm_g, align 1
  %7 = trunc i8 %6 to i1
  %8 = select i1 %5, i1 true, i1 %7
  br i1 %8, label %16, label %9

9:                                                ; preds = %3
  %10 = tail call i32 @H5_init_library() #2
  %11 = icmp slt i32 %10, 0
  br i1 %11, label %12, label %16

12:                                               ; preds = %9
  %13 = load i64, ptr @H5E_FUNC_g, align 8
  %14 = load i64, ptr @H5E_CANTINIT_g, align 8
  %15 = tail call i32 (ptr, ptr, i32, i64, i64, ptr, ...) @H5E_printf_stack(ptr noundef nonnull @.str, ptr noundef nonnull @__func__.H5Pset, i32 noundef 645, i64 noundef %13, i64 noundef %14, ptr noundef nonnull @.str.1) #2
  br label %.thread29

16:                                               ; preds = %9, %3
  %17 = tail call i32 @H5CX_push() #2
  %18 = icmp slt i32 %17, 0
  br i1 %18, label %19, label %23

19:                                               ; preds = %16
  %20 = load i64, ptr @H5E_FUNC_g, align 8
  %21 = load i64, ptr @H5E_CANTSET_g, align 8
  %22 = tail call i32 (ptr, ptr, i32, i64, i64, ptr, ...) @H5E_printf_stack(ptr noundef nonnull @.str, ptr noundef nonnull @__func__.H5Pset, i32 noundef 645, i64 noundef %20, i64 noundef %21, ptr noundef nonnull @.str.2) #2
  br label %.thread29

23:                                               ; preds = %16
  %24 = tail call i32 @H5E_clear_stack() #2
  %25 = tail call ptr @H5I_object_verify(i64 noundef %0, i32 noundef 11) #2
  %26 = icmp eq ptr %25, null
  br i1 %26, label %27, label %31

27:                                               ; preds = %23
  %28 = load i64, ptr @H5E_ARGS_g, align 8
  %29 = load i64, ptr @H5E_BADTYPE_g, align 8
  %30 = tail call i32 (ptr, ptr, i32, i64, i64, ptr, ...) @H5E_printf_stack(ptr noundef nonnull @.str, ptr noundef nonnull @__func__.H5Pset, i32 noundef 649, i64 noundef %28, i64 noundef %29, ptr noundef nonnull @.str.18) #2
  br label %.thread35

31:                                               ; preds = %23
  %.not = icmp eq ptr %1, null
  br i1 %.not, label %34, label %32

32:                                               ; preds = %31
  %33 = load i8, ptr %1, align 1
  %.not20 = icmp eq i8 %33, 0
  br i1 %.not20, label %34, label %38

34:                                               ; preds = %31, %32
  %35 = load i64, ptr @H5E_ARGS_g, align 8
  %36 = load i64, ptr @H5E_BADVALUE_g, align 8
  %37 = tail call i32 (ptr, ptr, i32, i64, i64, ptr, ...) @H5E_printf_stack(ptr noundef nonnull @.str, ptr noundef nonnull @__func__.H5Pset, i32 noundef 651, i64 noundef %35, i64 noundef %36, ptr noundef nonnull @.str.19) #2
  br label %.thread35

38:                                               ; preds = %32
  %39 = icmp eq ptr %2, null
  br i1 %39, label %40, label %44

40:                                               ; preds = %38
  %41 = load i64, ptr @H5E_ARGS_g, align 8
  %42 = load i64, ptr @H5E_BADVALUE_g, align 8
  %43 = tail call i32 (ptr, ptr, i32, i64, i64, ptr, ...) @H5E_printf_stack(ptr noundef nonnull @.str, ptr noundef nonnull @__func__.H5Pset, i32 noundef 653, i64 noundef %41, i64 noundef %42, ptr noundef nonnull @.str.21) #2
  br label %.thread35

44:                                               ; preds = %38
  %45 = tail call i32 @H5P_set(ptr noundef nonnull %25, ptr noundef nonnull %1, ptr noundef nonnull %2) #2
  %46 = icmp slt i32 %45, 0
  br i1 %46, label %47, label %52

47:                                               ; preds = %44
  %48 = load i64, ptr @H5E_PLIST_g, align 8
  %49 = load i64, ptr @H5E_CANTREGISTER_g, align 8
  %50 = tail call i32 (ptr, ptr, i32, i64, i64, ptr, ...) @H5E_printf_stack(ptr noundef nonnull @.str, ptr noundef nonnull @__func__.H5Pset, i32 noundef 657, i64 noundef %48, i64 noundef %49, ptr noundef nonnull @.str.22) #2
  br label %.thread35

.thread35:                                        ; preds = %34, %47, %40, %27
  %51 = tail call i32 @H5CX_pop(i1 noundef zeroext true) #2
  br label %.thread29

52:                                               ; preds = %44
  %53 = tail call i32 @H5CX_pop(i1 noundef zeroext true) #2
  br label %55

.thread29:                                        ; preds = %19, %12, %.thread35
  %54 = tail call i32 @H5E_dump_api_stack() #2
  br label %55

55:                                               ; preds = %52, %.thread29
  %.0162432 = phi i32 [ -1, %.thread29 ], [ 0, %52 ]
  ret i32 %.0162432
}